(dp1
I0
V\ubb38\ud654\ud3c9\ub860\uac00
p2
sI1
V\uc18c\uc7a5
p3
sI2
V\uc218\uc11d\ubd80\ucd1d\uc7ac
p4
sI3
V\uc2e4\uc7a5
p5
sI4
V\ud68c\uc7a5
p6
sI5
V\uace0\ubb38
p7
sI6
Vnull
p8
sI7
V\ube44\uc11c\uc2e4\uc7a5
p9
sI8
V\ucc28\uad00\ubcf4
p10
sI9
V\uc0ac\uc7a5
p11
sI10
V\ubd80\uc7a5
p12
sI11
V\uc7a5\uad00
p13
sI12
V\uc758\uc7a5
p14
sI13
V\uc704\uc6d0\uc7a5
p15
sI14
V\uc0c1\ubb34
p16
sI15
V\ubd80\ucd1d\uc7ac
p17
sI16
V\ucd1d\uc7ac
p18
sI17
V\ub300\ubcc0\uc778
p19
sI18
V\ubcc0\ud638\uc0ac
p20
sI19
V\ubd80\ucd1d\ub9ac
p21
sI20
V\uacfc\uc7a5
p22
sI21
V\uc2ec\uc758\uad00
p23
sI22
V\uc758\uc6d0
p24
sI23
V\ub300\ud45c
p25
sI24
V\ub300\ud1b5\ub839
p26
sI25
V\uad50\uc218
p27
sI26
V\ube44\uc11c\uad00
p28
sI27
V\uc608\uc0b0\uc2e4\uc7a5
p29
s.