(lp1
(i__main__
NewsSource
p2
(dp3
S'org'
p4
I9
sS'code'
p5
I14
sS'pos'
p6
I27
sS'id'
p7
I3
sS'name'
p8
(lp9
sba(i__main__
NewsSource
p10
(dp11
g4
I9
sg5
I14
sg6
I27
sg7
I2
sg8
(lp12
sba(i__main__
NewsSource
p13
(dp14
g4
I9
sg5
I14
sg6
I27
sg7
I1
sg8
(lp15
sba(i__main__
NewsSource
p16
(dp17
g4
I9
sg5
I43
sg6
I27
sg7
I0
sg8
(lp18
sba(i__main__
NewsSource
p19
(dp20
g4
I2
sg5
I13
sg6
I24
sg7
I7
sg8
(lp21
sba(i__main__
NewsSource
p22
(dp23
g4
I9
sg5
I14
sg6
I8
sg7
I6
sg8
(lp24
sba(i__main__
NewsSource
p25
(dp26
g4
I2
sg5
I13
sg6
I24
sg7
I5
sg8
(lp27
sba(i__main__
NewsSource
p28
(dp29
g4
I1
sg5
I43
sg6
I8
sg7
I4
sg8
(lp30
sba(i__main__
NewsSource
p31
(dp32
g4
I4
sg5
I331
sg6
I2
sg7
I9
sg8
(lp33
sba(i__main__
NewsSource
p34
(dp35
g4
I9
sg5
I14
sg6
I27
sg7
I8
sg8
(lp36
sba(i__main__
NewsSource
p37
(dp38
g4
I9
sg5
I14
sg6
I17
sg7
I35
sg8
(lp39
sba(i__main__
NewsSource
p40
(dp41
g4
I6
sg5
I121
sg6
I16
sg7
I36
sg8
(lp42
sba(i__main__
NewsSource
p43
(dp44
g4
I9
sg5
I43
sg6
I23
sg7
I33
sg8
(lp45
sba(i__main__
NewsSource
p46
(dp47
g4
I9
sg5
I331
sg6
I5
sg7
I34
sg8
(lp48
sba(i__main__
NewsSource
p49
(dp50
g4
I9
sg5
I14
sg6
I27
sg7
I39
sg8
(lp51
sba(i__main__
NewsSource
p52
(dp53
g4
I8
sg5
I142
sg6
I4
sg7
I37
sg8
(lp54
sba(i__main__
NewsSource
p55
(dp56
g4
I9
sg5
I14
sg6
I27
sg7
I38
sg8
(lp57
sba(i__main__
NewsSource
p58
(dp59
g4
I9
sg5
I14
sg6
I4
sg7
I43
sg8
(lp60
sba(i__main__
NewsSource
p61
(dp62
g4
I9
sg5
I14
sg6
I19
sg7
I42
sg8
(lp63
sba(i__main__
NewsSource
p64
(dp65
g4
I9
sg5
I422
sg6
I10
sg7
I41
sg8
(lp66
sba(i__main__
NewsSource
p67
(dp68
g4
I9
sg5
I422
sg6
I18
sg7
I40
sg8
(lp69
sba(i__main__
NewsSource
p70
(dp71
g4
I9
sg5
I14
sg6
I27
sg7
I22
sg8
(lp72
sba(i__main__
NewsSource
p73
(dp74
g4
I9
sg5
I14
sg6
I27
sg7
I23
sg8
(lp75
sba(i__main__
NewsSource
p76
(dp77
g4
I9
sg5
I331
sg6
I17
sg7
I24
sg8
(lp78
sba(i__main__
NewsSource
p79
(dp80
g4
I9
sg5
I422
sg6
I13
sg7
I25
sg8
(lp81
sba(i__main__
NewsSource
p82
(dp83
g4
I9
sg5
I422
sg6
I27
sg7
I26
sg8
(lp84
sba(i__main__
NewsSource
p85
(dp86
g4
I9
sg5
I422
sg6
I8
sg7
I27
sg8
(lp87
sba(i__main__
NewsSource
p88
(dp89
g4
I9
sg5
I14
sg6
I4
sg7
I28
sg8
(lp90
sba(i__main__
NewsSource
p91
(dp92
g4
I9
sg5
I14
sg6
I27
sg7
I29
sg8
(lp93
sba(i__main__
NewsSource
p94
(dp95
g4
I7
sg5
I994
sg6
I20
sg7
I30
sg8
(lp96
sba(i__main__
NewsSource
p97
(dp98
g4
I9
sg5
I422
sg6
I27
sg7
I32
sg8
(lp99
sba(i__main__
NewsSource
p100
(dp101
g4
I9
sg5
I331
sg6
I12
sg7
I31
sg8
(lp102
sba(i__main__
NewsSource
p103
(dp104
g4
I7
sg5
I14
sg6
I7
sg7
I19
sg8
(lp105
sba(i__main__
NewsSource
p106
(dp107
g4
I9
sg5
I331
sg6
I14
sg7
I17
sg8
(lp108
sba(i__main__
NewsSource
p109
(dp110
g4
I9
sg5
I43
sg6
I27
sg7
I18
sg8
(lp111
sba(i__main__
NewsSource
p112
(dp113
g4
I9
sg5
I14
sg6
I6
sg7
I15
sg8
(lp114
sba(i__main__
NewsSource
p115
(dp116
g4
I9
sg5
I14
sg6
I27
sg7
I16
sg8
(lp117
sba(i__main__
NewsSource
p118
(dp119
g4
I7
sg5
I15
sg6
I7
sg7
I13
sg8
(lp120
sba(i__main__
NewsSource
p121
(dp122
g4
I9
sg5
I422
sg6
I27
sg7
I14
sg8
(lp123
sba(i__main__
NewsSource
p124
(dp125
g4
I9
sg5
I14
sg6
I27
sg7
I11
sg8
(lp126
sba(i__main__
NewsSource
p127
(dp128
g4
I9
sg5
I14
sg6
I23
sg7
I12
sg8
(lp129
sba(i__main__
NewsSource
p130
(dp131
g4
I9
sg5
I422
sg6
I27
sg7
I21
sg8
(lp132
sba(i__main__
NewsSource
p133
(dp134
g4
I9
sg5
I422
sg6
I4
sg7
I20
sg8
(lp135
sba(i__main__
NewsSource
p136
(dp137
g4
I3
sg5
I114
sg6
I14
sg7
I10
sg8
(lp138
sba(i__main__
NewsSource
p139
(dp140
g4
I9
sg5
I14
sg6
I27
sg7
I79
sg8
(lp141
sba(i__main__
NewsSource
p142
(dp143
g4
I9
sg5
I43
sg6
I27
sg7
I78
sg8
(lp144
sba(i__main__
NewsSource
p145
(dp146
g4
I9
sg5
I43
sg6
I27
sg7
I77
sg8
(lp147
sba(i__main__
NewsSource
p148
(dp149
g4
I9
sg5
I331
sg6
I25
sg7
I82
sg8
(lp150
sba(i__main__
NewsSource
p151
(dp152
g4
I9
sg5
I14
sg6
I27
sg7
I83
sg8
(lp153
sba(i__main__
NewsSource
p154
(dp155
g4
I9
sg5
I422
sg6
I27
sg7
I80
sg8
(lp156
sba(i__main__
NewsSource
p157
(dp158
g4
I9
sg5
I14
sg6
I27
sg7
I81
sg8
(lp159
sba(i__main__
NewsSource
p160
(dp161
g4
I9
sg5
I422
sg6
I27
sg7
I86
sg8
(lp162
sba(i__main__
NewsSource
p163
(dp164
g4
I9
sg5
I422
sg6
I8
sg7
I87
sg8
(lp165
sba(i__main__
NewsSource
p166
(dp167
g4
I9
sg5
I422
sg6
I27
sg7
I84
sg8
(lp168
sba(i__main__
NewsSource
p169
(dp170
g4
I9
sg5
I14
sg6
I27
sg7
I85
sg8
(lp171
sba(i__main__
NewsSource
p172
(dp173
g4
I9
sg5
I14
sg6
I1
sg7
I67
sg8
(lp174
sba(i__main__
NewsSource
p175
(dp176
g4
I9
sg5
I422
sg6
I27
sg7
I66
sg8
(lp177
sba(i__main__
NewsSource
p178
(dp179
g4
I5
sg5
I14
sg6
I19
sg7
I69
sg8
(lp180
sba(i__main__
NewsSource
p181
(dp182
g4
I9
sg5
I14
sg6
I17
sg7
I68
sg8
(lp183
sba(i__main__
NewsSource
p184
(dp185
g4
I9
sg5
I331
sg6
I16
sg7
I70
sg8
(lp186
sba(i__main__
NewsSource
p187
(dp188
g4
I9
sg5
I43
sg6
I27
sg7
I71
sg8
(lp189
sba(i__main__
NewsSource
p190
(dp191
g4
I9
sg5
I14
sg6
I11
sg7
I72
sg8
(lp192
sba(i__main__
NewsSource
p193
(dp194
g4
I9
sg5
I331
sg6
I5
sg7
I73
sg8
(lp195
sba(i__main__
NewsSource
p196
(dp197
g4
I9
sg5
I121
sg6
I21
sg7
I74
sg8
(lp198
sba(i__main__
NewsSource
p199
(dp200
g4
I9
sg5
I15
sg6
I27
sg7
I75
sg8
(lp201
sba(i__main__
NewsSource
p202
(dp203
g4
I0
sg5
I121
sg6
I16
sg7
I76
sg8
(lp204
sba(i__main__
NewsSource
p205
(dp206
g4
I9
sg5
I14
sg6
I15
sg7
I59
sg8
(lp207
sba(i__main__
NewsSource
p208
(dp209
g4
I4
sg5
I994
sg6
I15
sg7
I58
sg8
(lp210
sba(i__main__
NewsSource
p211
(dp212
g4
I9
sg5
I331
sg6
I27
sg7
I57
sg8
(lp213
sba(i__main__
NewsSource
p214
(dp215
g4
I9
sg5
I14
sg6
I16
sg7
I56
sg8
(lp216
sba(i__main__
NewsSource
p217
(dp218
g4
I9
sg5
I331
sg6
I27
sg7
I55
sg8
(lp219
sba(i__main__
NewsSource
p220
(dp221
g4
I9
sg5
I43
sg6
I27
sg7
I64
sg8
(lp222
sba(i__main__
NewsSource
p223
(dp224
g4
I9
sg5
I14
sg6
I27
sg7
I65
sg8
(lp225
sba(i__main__
NewsSource
p226
(dp227
g4
I9
sg5
I14
sg6
I27
sg7
I62
sg8
(lp228
sba(i__main__
NewsSource
p229
(dp230
g4
I9
sg5
I14
sg6
I27
sg7
I63
sg8
(lp231
sba(i__main__
NewsSource
p232
(dp233
g4
I9
sg5
I422
sg6
I27
sg7
I60
sg8
(lp234
sba(i__main__
NewsSource
p235
(dp236
g4
I6
sg5
I121
sg6
I27
sg7
I61
sg8
(lp237
sba(i__main__
NewsSource
p238
(dp239
g4
I11
sg5
I532
sg6
I19
sg7
I49
sg8
(lp240
sba(i__main__
NewsSource
p241
(dp242
g4
I9
sg5
I422
sg6
I19
sg7
I48
sg8
(lp243
sba(i__main__
NewsSource
p244
(dp245
g4
I9
sg5
I422
sg6
I27
sg7
I45
sg8
(lp246
sba(i__main__
NewsSource
p247
(dp248
g4
I9
sg5
I14
sg6
I11
sg7
I44
sg8
(lp249
sba(i__main__
NewsSource
p250
(dp251
g4
I9
sg5
I43
sg6
I0
sg7
I47
sg8
(lp252
sba(i__main__
NewsSource
p253
(dp254
g4
I9
sg5
I43
sg6
I3
sg7
I46
sg8
(lp255
sba(i__main__
NewsSource
p256
(dp257
g4
I9
sg5
I14
sg6
I27
sg7
I51
sg8
(lp258
sba(i__main__
NewsSource
p259
(dp260
g4
I9
sg5
I14
sg6
I27
sg7
I52
sg8
(lp261
sba(i__main__
NewsSource
p262
(dp263
g4
I9
sg5
I14
sg6
I16
sg7
I53
sg8
(lp264
sba(i__main__
NewsSource
p265
(dp266
g4
I4
sg5
I994
sg6
I16
sg7
I54
sg8
(lp267
sba(i__main__
NewsSource
p268
(dp269
g4
I9
sg5
I14
sg6
I27
sg7
I50
sg8
(lp270
sba(i__main__
NewsSource
p271
(dp272
g4
I9
sg5
I43
sg6
I27
sg7
I99
sg8
(lp273
sba(i__main__
NewsSource
p274
(dp275
g4
I9
sg5
I422
sg6
I9
sg7
I98
sg8
(lp276
sba(i__main__
NewsSource
p277
(dp278
g4
I9
sg5
I14
sg6
I8
sg7
I97
sg8
(lp279
sba(i__main__
NewsSource
p280
(dp281
g4
I9
sg5
I121
sg6
I21
sg7
I96
sg8
(lp282
sba(i__main__
NewsSource
p283
(dp284
g4
I9
sg5
I422
sg6
I26
sg7
I95
sg8
(lp285
sba(i__main__
NewsSource
p286
(dp287
g4
I9
sg5
I14
sg6
I27
sg7
I94
sg8
(lp288
sba(i__main__
NewsSource
p289
(dp290
g4
I9
sg5
I422
sg6
I4
sg7
I93
sg8
(lp291
sba(i__main__
NewsSource
p292
(dp293
g4
I9
sg5
I422
sg6
I27
sg7
I92
sg8
(lp294
sba(i__main__
NewsSource
p295
(dp296
g4
I10
sg5
I322
sg6
I27
sg7
I91
sg8
(lp297
sba(i__main__
NewsSource
p298
(dp299
g4
I9
sg5
I422
sg6
I22
sg7
I90
sg8
(lp300
sba.