(dp1
S'24'
p2
I4
sS'25'
p3
I4
sS'26'
p4
I4
sS'27'
p5
I4
sS'20'
p6
I4
sS'21'
p7
I4
sS'22'
p8
I4
sS'23'
p9
I4
sS'28'
p10
I4
sS'29'
p11
I3
sS'0'
I4
sS'4'
I3
sS'8'
I3
sS'59'
p12
I4
sS'58'
p13
I4
sS'55'
p14
I4
sS'54'
p15
I4
sS'57'
p16
I3
sS'56'
p17
I4
sS'51'
p18
I4
sS'50'
p19
I4
sS'53'
p20
I4
sS'52'
p21
I4
sS'88'
p22
I4
sS'89'
p23
I4
sS'82'
p24
I4
sS'83'
p25
I4
sS'80'
p26
I4
sS'81'
p27
I4
sS'86'
p28
I3
sS'87'
p29
I4
sS'84'
p30
I4
sS'85'
p31
I4
sS'3'
I4
sS'7'
I3
sS'39'
p32
I4
sS'38'
p33
I4
sS'33'
p34
I4
sS'32'
p35
I3
sS'31'
p36
I4
sS'30'
p37
I4
sS'37'
p38
I3
sS'36'
p39
I4
sS'35'
p40
I4
sS'34'
p41
I4
sS'60'
p42
I4
sS'61'
p43
I4
sS'62'
p44
I4
sS'63'
p45
I4
sS'64'
p46
I4
sS'65'
p47
I3
sS'66'
p48
I4
sS'67'
p49
I3
sS'68'
p50
I4
sS'69'
p51
I4
sS'2'
I4
sS'6'
I3
sS'91'
p52
I4
sS'90'
p53
I4
sS'93'
p54
I4
sS'92'
p55
I4
sS'95'
p56
I4
sS'94'
p57
I4
sS'97'
p58
I4
sS'96'
p59
I3
sS'11'
p60
I3
sS'10'
p61
I4
sS'13'
p62
I4
sS'12'
p63
I4
sS'15'
p64
I3
sS'14'
p65
I4
sS'17'
p66
I4
sS'16'
p67
I4
sS'19'
p68
I4
sS'18'
p69
I4
sS'48'
p70
I4
sS'49'
p71
I4
sS'46'
p72
I4
sS'47'
p73
I4
sS'44'
p74
I4
sS'45'
p75
I4
sS'42'
p76
I4
sS'43'
p77
I3
sS'40'
p78
I4
sS'41'
p79
I4
sS'1'
I4
sS'5'
I4
sS'9'
I4
sS'77'
p80
I3
sS'76'
p81
I3
sS'75'
p82
I4
sS'74'
p83
I4
sS'73'
p84
I4
sS'72'
p85
I4
sS'71'
p86
I4
sS'70'
p87
I4
sS'79'
p88
I4
sS'78'
p89
I4
s.