(lp1
(i__main__
NewsSource
p2
(dp3
S'code'
p4
S'14'
p5
sS'name'
p6
(lp7
sS'classified'
p8
I0
sS'pos'
p9
I27
sS'org'
p10
I10
sS'type'
p11
I4
sS'id'
p12
I3
sba(i__main__
NewsSource
p13
(dp14
g4
S'14'
p15
sg6
(lp16
sg8
I0
sg9
I27
sg10
I10
sg11
I4
sg12
I2
sba(i__main__
NewsSource
p17
(dp18
g4
S'14'
p19
sg6
(lp20
sg8
I0
sg9
I27
sg10
I10
sg11
I4
sg12
I1
sba(i__main__
NewsSource
p21
(dp22
g4
S'43'
p23
sg6
(lp24
sg8
I0
sg9
I27
sg10
I10
sg11
I4
sg12
I0
sba(i__main__
NewsSource
p25
(dp26
g4
S'13'
p27
sg6
(lp28
sg8
I0
sg9
I24
sg10
I2
sg11
I3
sg12
I7
sba(i__main__
NewsSource
p29
(dp30
g4
S'14'
p31
sg6
(lp32
sg8
I0
sg9
I8
sg10
I10
sg11
I4
sg12
I6
sba(i__main__
NewsSource
p33
(dp34
g4
S'13'
p35
sg6
(lp36
sg8
I0
sg9
I24
sg10
I2
sg11
I3
sg12
I5
sba(i__main__
NewsSource
p37
(dp38
g4
S'43'
p39
sg6
(lp40
sg8
I0
sg9
I8
sg10
I1
sg11
I3
sg12
I4
sba(i__main__
NewsSource
p41
(dp42
g4
S'331'
p43
sg6
(lp44
sg8
I0
sg9
I2
sg10
I4
sg11
I3
sg12
I9
sba(i__main__
NewsSource
p45
(dp46
g4
S'14'
p47
sg6
(lp48
sg8
I0
sg9
I27
sg10
I10
sg11
I4
sg12
I8
sba(i__main__
NewsSource
p49
(dp50
g4
S'14'
p51
sg6
(lp52
sg8
I0
sg9
I17
sg10
I10
sg11
I4
sg12
I35
sba(i__main__
NewsSource
p53
(dp54
g4
S'121'
p55
sg6
(lp56
sg8
I0
sg9
I16
sg10
I6
sg11
I3
sg12
I36
sba(i__main__
NewsSource
p57
(dp58
g4
S'43'
p59
sg6
(lp60
sg8
I0
sg9
I23
sg10
I10
sg11
I4
sg12
I33
sba(i__main__
NewsSource
p61
(dp62
g4
S'331'
p63
sg6
(lp64
sg8
I0
sg9
I5
sg10
I10
sg11
I4
sg12
I34
sba(i__main__
NewsSource
p65
(dp66
g4
S'14'
p67
sg6
(lp68
sg8
I0
sg9
I27
sg10
I10
sg11
I4
sg12
I39
sba(i__main__
NewsSource
p69
(dp70
g4
S'142'
p71
sg6
(lp72
sg8
I0
sg9
I4
sg10
I8
sg11
I3
sg12
I37
sba(i__main__
NewsSource
p73
(dp74
g4
S'14'
p75
sg6
(lp76
sg8
I0
sg9
I27
sg10
I10
sg11
I4
sg12
I38
sba(i__main__
NewsSource
p77
(dp78
g4
S'14'
p79
sg6
(lp80
sg8
I0
sg9
I4
sg10
I10
sg11
I4
sg12
I43
sba(i__main__
NewsSource
p81
(dp82
g4
S'14'
p83
sg6
(lp84
sg8
I0
sg9
I19
sg10
I10
sg11
I4
sg12
I42
sba(i__main__
NewsSource
p85
(dp86
g4
S'422'
p87
sg6
(lp88
sg8
I0
sg9
I10
sg10
I10
sg11
I4
sg12
I41
sba(i__main__
NewsSource
p89
(dp90
g4
S'422'
p91
sg6
(lp92
sg8
I0
sg9
I18
sg10
I10
sg11
I4
sg12
I40
sba(i__main__
NewsSource
p93
(dp94
g4
S'14'
p95
sg6
(lp96
sg8
I0
sg9
I27
sg10
I10
sg11
I4
sg12
I22
sba(i__main__
NewsSource
p97
(dp98
g4
S'14'
p99
sg6
(lp100
sg8
I0
sg9
I27
sg10
I10
sg11
I4
sg12
I23
sba(i__main__
NewsSource
p101
(dp102
g4
S'331'
p103
sg6
(lp104
sg8
I0
sg9
I17
sg10
I10
sg11
I4
sg12
I24
sba(i__main__
NewsSource
p105
(dp106
g4
S'422'
p107
sg6
(lp108
sg8
I0
sg9
I13
sg10
I10
sg11
I4
sg12
I25
sba(i__main__
NewsSource
p109
(dp110
g4
S'422'
p111
sg6
(lp112
sg8
I0
sg9
I27
sg10
I10
sg11
I4
sg12
I26
sba(i__main__
NewsSource
p113
(dp114
g4
S'422'
p115
sg6
(lp116
sg8
I0
sg9
I8
sg10
I10
sg11
I4
sg12
I27
sba(i__main__
NewsSource
p117
(dp118
g4
S'14'
p119
sg6
(lp120
sg8
I0
sg9
I4
sg10
I10
sg11
I4
sg12
I28
sba(i__main__
NewsSource
p121
(dp122
g4
S'14'
p123
sg6
(lp124
sg8
I0
sg9
I27
sg10
I10
sg11
I4
sg12
I29
sba(i__main__
NewsSource
p125
(dp126
g4
S'994'
p127
sg6
(lp128
sg8
I0
sg9
I20
sg10
I7
sg11
I3
sg12
I30
sba(i__main__
NewsSource
p129
(dp130
g4
S'422'
p131
sg6
(lp132
sg8
I0
sg9
I27
sg10
I10
sg11
I4
sg12
I32
sba(i__main__
NewsSource
p133
(dp134
g4
S'331'
p135
sg6
(lp136
sg8
I0
sg9
I12
sg10
I10
sg11
I4
sg12
I31
sba(i__main__
NewsSource
p137
(dp138
g4
S'14'
p139
sg6
(lp140
sg8
I0
sg9
I7
sg10
I7
sg11
I3
sg12
I19
sba(i__main__
NewsSource
p141
(dp142
g4
S'331'
p143
sg6
(lp144
sg8
I0
sg9
I14
sg10
I10
sg11
I4
sg12
I17
sba(i__main__
NewsSource
p145
(dp146
g4
S'43'
p147
sg6
(lp148
sg8
I0
sg9
I27
sg10
I10
sg11
I4
sg12
I18
sba(i__main__
NewsSource
p149
(dp150
g4
S'14'
p151
sg6
(lp152
sg8
I0
sg9
I6
sg10
I10
sg11
I4
sg12
I15
sba(i__main__
NewsSource
p153
(dp154
g4
S'14'
p155
sg6
(lp156
sg8
I0
sg9
I27
sg10
I10
sg11
I4
sg12
I16
sba(i__main__
NewsSource
p157
(dp158
g4
S'15'
p159
sg6
(lp160
sg8
I0
sg9
I7
sg10
I7
sg11
I3
sg12
I13
sba(i__main__
NewsSource
p161
(dp162
g4
S'422'
p163
sg6
(lp164
sg8
I0
sg9
I27
sg10
I10
sg11
I4
sg12
I14
sba(i__main__
NewsSource
p165
(dp166
g4
S'14'
p167
sg6
(lp168
sg8
I0
sg9
I27
sg10
I10
sg11
I4
sg12
I11
sba(i__main__
NewsSource
p169
(dp170
g4
S'14'
p171
sg6
(lp172
sg8
I0
sg9
I23
sg10
I10
sg11
I4
sg12
I12
sba(i__main__
NewsSource
p173
(dp174
g4
S'422'
p175
sg6
(lp176
sg8
I0
sg9
I27
sg10
I10
sg11
I4
sg12
I21
sba(i__main__
NewsSource
p177
(dp178
g4
S'422'
p179
sg6
(lp180
sg8
I0
sg9
I4
sg10
I10
sg11
I4
sg12
I20
sba(i__main__
NewsSource
p181
(dp182
g4
S'114'
p183
sg6
(lp184
sg8
I0
sg9
I14
sg10
I3
sg11
I3
sg12
I10
sba(i__main__
NewsSource
p185
(dp186
g4
S'14'
p187
sg6
(lp188
sg8
I0
sg9
I27
sg10
I10
sg11
I4
sg12
I79
sba(i__main__
NewsSource
p189
(dp190
g4
S'43'
p191
sg6
(lp192
sg8
I0
sg9
I27
sg10
I10
sg11
I4
sg12
I78
sba(i__main__
NewsSource
p193
(dp194
g4
S'43'
p195
sg6
(lp196
sg8
I0
sg9
I27
sg10
I10
sg11
I4
sg12
I77
sba(i__main__
NewsSource
p197
(dp198
g4
S'331'
p199
sg6
(lp200
sg8
I0
sg9
I25
sg10
I10
sg11
I4
sg12
I82
sba(i__main__
NewsSource
p201
(dp202
g4
S'14'
p203
sg6
(lp204
sg8
I0
sg9
I27
sg10
I10
sg11
I4
sg12
I83
sba(i__main__
NewsSource
p205
(dp206
g4
S'422'
p207
sg6
(lp208
sg8
I0
sg9
I27
sg10
I10
sg11
I4
sg12
I80
sba(i__main__
NewsSource
p209
(dp210
g4
S'14'
p211
sg6
(lp212
sg8
I0
sg9
I27
sg10
I10
sg11
I4
sg12
I81
sba(i__main__
NewsSource
p213
(dp214
g4
S'422'
p215
sg6
(lp216
sg8
I0
sg9
I27
sg10
I10
sg11
I4
sg12
I86
sba(i__main__
NewsSource
p217
(dp218
g4
S'422'
p219
sg6
(lp220
sg8
I0
sg9
I8
sg10
I10
sg11
I4
sg12
I87
sba(i__main__
NewsSource
p221
(dp222
g4
S'422'
p223
sg6
(lp224
sg8
I0
sg9
I27
sg10
I10
sg11
I4
sg12
I84
sba(i__main__
NewsSource
p225
(dp226
g4
S'14'
p227
sg6
(lp228
sg8
I0
sg9
I27
sg10
I10
sg11
I4
sg12
I85
sba(i__main__
NewsSource
p229
(dp230
g4
S'14'
p231
sg6
(lp232
sg8
I0
sg9
I1
sg10
I10
sg11
I4
sg12
I67
sba(i__main__
NewsSource
p233
(dp234
g4
S'422'
p235
sg6
(lp236
sg8
I0
sg9
I27
sg10
I10
sg11
I4
sg12
I66
sba(i__main__
NewsSource
p237
(dp238
g4
S'14'
p239
sg6
(lp240
sg8
I0
sg9
I19
sg10
I5
sg11
I3
sg12
I69
sba(i__main__
NewsSource
p241
(dp242
g4
S'14'
p243
sg6
(lp244
sg8
I0
sg9
I17
sg10
I10
sg11
I4
sg12
I68
sba(i__main__
NewsSource
p245
(dp246
g4
S'331'
p247
sg6
(lp248
sg8
I0
sg9
I16
sg10
I10
sg11
I4
sg12
I70
sba(i__main__
NewsSource
p249
(dp250
g4
S'43'
p251
sg6
(lp252
sg8
I0
sg9
I27
sg10
I10
sg11
I4
sg12
I71
sba(i__main__
NewsSource
p253
(dp254
g4
S'14'
p255
sg6
(lp256
sg8
I0
sg9
I11
sg10
I10
sg11
I4
sg12
I72
sba(i__main__
NewsSource
p257
(dp258
g4
S'331'
p259
sg6
(lp260
sg8
I0
sg9
I5
sg10
I10
sg11
I4
sg12
I73
sba(i__main__
NewsSource
p261
(dp262
g4
S'121'
p263
sg6
(lp264
sg8
I0
sg9
I21
sg10
I10
sg11
I4
sg12
I74
sba(i__main__
NewsSource
p265
(dp266
g4
S'15'
p267
sg6
(lp268
sg8
I0
sg9
I27
sg10
I10
sg11
I4
sg12
I75
sba(i__main__
NewsSource
p269
(dp270
g4
S'121'
p271
sg6
(lp272
sg8
I0
sg9
I16
sg10
I0
sg11
I3
sg12
I76
sba(i__main__
NewsSource
p273
(dp274
g4
S'14'
p275
sg6
(lp276
sg8
I0
sg9
I15
sg10
I10
sg11
I4
sg12
I59
sba(i__main__
NewsSource
p277
(dp278
g4
S'994'
p279
sg6
(lp280
sg8
I0
sg9
I15
sg10
I4
sg11
I3
sg12
I58
sba(i__main__
NewsSource
p281
(dp282
g4
S'331'
p283
sg6
(lp284
sg8
I0
sg9
I27
sg10
I10
sg11
I4
sg12
I57
sba(i__main__
NewsSource
p285
(dp286
g4
S'14'
p287
sg6
(lp288
sg8
I0
sg9
I16
sg10
I10
sg11
I4
sg12
I56
sba(i__main__
NewsSource
p289
(dp290
g4
S'331'
p291
sg6
(lp292
sg8
I0
sg9
I27
sg10
I10
sg11
I4
sg12
I55
sba(i__main__
NewsSource
p293
(dp294
g4
S'43'
p295
sg6
(lp296
sg8
I0
sg9
I27
sg10
I10
sg11
I4
sg12
I64
sba(i__main__
NewsSource
p297
(dp298
g4
S'14'
p299
sg6
(lp300
sg8
I0
sg9
I27
sg10
I10
sg11
I4
sg12
I65
sba(i__main__
NewsSource
p301
(dp302
g4
S'14'
p303
sg6
(lp304
sg8
I0
sg9
I27
sg10
I10
sg11
I4
sg12
I62
sba(i__main__
NewsSource
p305
(dp306
g4
S'14'
p307
sg6
(lp308
sg8
I0
sg9
I27
sg10
I10
sg11
I4
sg12
I63
sba(i__main__
NewsSource
p309
(dp310
g4
S'422'
p311
sg6
(lp312
sg8
I0
sg9
I27
sg10
I10
sg11
I4
sg12
I60
sba(i__main__
NewsSource
p313
(dp314
g4
S'121'
p315
sg6
(lp316
sg8
I0
sg9
I27
sg10
I6
sg11
I3
sg12
I61
sba(i__main__
NewsSource
p317
(dp318
g4
S'532'
p319
sg6
(lp320
sg8
I0
sg9
I19
sg10
I11
sg11
I3
sg12
I49
sba(i__main__
NewsSource
p321
(dp322
g4
S'422'
p323
sg6
(lp324
sg8
I0
sg9
I19
sg10
I10
sg11
I4
sg12
I48
sba(i__main__
NewsSource
p325
(dp326
g4
S'422'
p327
sg6
(lp328
sg8
I0
sg9
I27
sg10
I10
sg11
I4
sg12
I45
sba(i__main__
NewsSource
p329
(dp330
g4
S'14'
p331
sg6
(lp332
sg8
I0
sg9
I11
sg10
I10
sg11
I4
sg12
I44
sba(i__main__
NewsSource
p333
(dp334
g4
S'43'
p335
sg6
(lp336
sg8
I0
sg9
I0
sg10
I10
sg11
I4
sg12
I47
sba(i__main__
NewsSource
p337
(dp338
g4
S'43'
p339
sg6
(lp340
sg8
I0
sg9
I3
sg10
I10
sg11
I4
sg12
I46
sba(i__main__
NewsSource
p341
(dp342
g4
S'14'
p343
sg6
(lp344
sg8
I0
sg9
I27
sg10
I10
sg11
I4
sg12
I51
sba(i__main__
NewsSource
p345
(dp346
g4
S'14'
p347
sg6
(lp348
sg8
I0
sg9
I27
sg10
I10
sg11
I4
sg12
I52
sba(i__main__
NewsSource
p349
(dp350
g4
S'14'
p351
sg6
(lp352
sg8
I0
sg9
I16
sg10
I10
sg11
I4
sg12
I53
sba(i__main__
NewsSource
p353
(dp354
g4
S'994'
p355
sg6
(lp356
sg8
I0
sg9
I16
sg10
I4
sg11
I3
sg12
I54
sba(i__main__
NewsSource
p357
(dp358
g4
S'14'
p359
sg6
(lp360
sg8
I0
sg9
I27
sg10
I10
sg11
I4
sg12
I50
sba(i__main__
NewsSource
p361
(dp362
g4
S'43'
p363
sg6
(lp364
sg8
I0
sg9
I27
sg10
I10
sg11
I4
sg12
I99
sba(i__main__
NewsSource
p365
(dp366
g4
S'422'
p367
sg6
(lp368
sg8
I0
sg9
I9
sg10
I10
sg11
I4
sg12
I98
sba(i__main__
NewsSource
p369
(dp370
g4
S'14'
p371
sg6
(lp372
sg8
I0
sg9
I8
sg10
I10
sg11
I4
sg12
I97
sba(i__main__
NewsSource
p373
(dp374
g4
S'121'
p375
sg6
(lp376
sg8
I0
sg9
I21
sg10
I10
sg11
I4
sg12
I96
sba(i__main__
NewsSource
p377
(dp378
g4
S'422'
p379
sg6
(lp380
sg8
I0
sg9
I26
sg10
I10
sg11
I4
sg12
I95
sba(i__main__
NewsSource
p381
(dp382
g4
S'14'
p383
sg6
(lp384
sg8
I0
sg9
I27
sg10
I10
sg11
I4
sg12
I94
sba(i__main__
NewsSource
p385
(dp386
g4
S'422'
p387
sg6
(lp388
sg8
I0
sg9
I4
sg10
I10
sg11
I4
sg12
I93
sba(i__main__
NewsSource
p389
(dp390
g4
S'422'
p391
sg6
(lp392
sg8
I0
sg9
I27
sg10
I10
sg11
I4
sg12
I92
sba(i__main__
NewsSource
p393
(dp394
g4
S'322'
p395
sg6
(lp396
sg8
I0
sg9
I27
sg10
I9
sg11
I3
sg12
I91
sba(i__main__
NewsSource
p397
(dp398
g4
S'422'
p399
sg6
(lp400
sg8
I0
sg9
I22
sg10
I10
sg11
I4
sg12
I90
sba.