(dp1
I0
V\ubbfc\uc8fc\ub2f9
p2
sI1
V\ucf54\uc624\ub871\uadf8\ub8f9
p3
sI2
V\uc11c\uc6b8\ub300
p4
sI3
V\uad6d\ubbfc\ud68c\uc758
p5
sI4
V\uc790\ubbfc\ub828
p6
sI5
V\uac74\uc124\uad50\ud1b5\ubd80
p7
sI6
V\uc2e0\ud55c\uad6d\ub2f9
p8
sI7
V\uc678\ubb34\ubd80
p9
sI8
V\uc804\uacbd\ub828
p10
sI9
V\ucf54\uc624\ub871\uac74\uc124
p11
sI10
NsI11
V\ud55c\uc9c4\uad00\uad11
p12
s.