(dp1
I0
V\uc774\ubbf8\uc9c0
p2
sI1
V\uae40\ud0dc\uc9c4
p3
sI2
V\uc870\ubcd1\uc9c1
p4
sI3
V\ubc15\uc7ac\uc724
p5
sI4
V\uc1a1\ub300\ud3c9
p6
sI5
V\uae40\uc218\ud589
p7
sI6
V\ub0a8\uad81\uc11d
p8
sI7
V\uc870\ub3d9\uc131
p9
sI8
V\ucd5c\uc885\ucc2c
p10
sI9
V\uae40\ubcf5\ub3d9
p11
sI10
V\uc815\ub300\ucca0
p12
sI11
V\uc774\uc6d0\ud615
p13
sI12
V\uae40\uc601\uc0bc
p14
sI13
V\uc815\ud0dc\uc775
p15
sI14
V\uc774\uc758\uc6d0
p16
sI15
V\uae40\uad11\uc77c
p17
sI16
V\uc724\uc6d0\uc11d
p18
sI17
g11
sI18
V\uacbd\ud5d8\ub2f4
p19
sI19
V\uc774\uc7ac\ucd98
p20
sI20
V\uc774\uac74\ud76c
p21
sI21
V\uae40\uc644\uc12d
p22
sI22
V\ud669\uc131\uc9c4
p23
sI23
V\ud604\uc2b9\uc885
p24
sI24
V\uc870\uc6a9\ud658
p25
sI25
V\uc815\uc740\uc218
p26
sI26
V\ucd5c\uc2b9\uc9c4
p27
sI27
V\ud55c\uac11\uc218
p28
sI28
V\uc624\uc131\uc219
p29
sI29
V\uae40\uc6a9\uc9c4
p30
sI30
g13
sI31
g24
sI32
V\uae40\uc6d0\uc7a5
p31
sI33
V\ub12c\uc2a8
p32
sI34
V\ubc15\uc900\uaddc
p33
sI35
V\uc870\ubc30\uc219
p34
sI36
V\uae40\ucca0
p35
sI37
V\ucd5c\uc885\ud604
p36
sI38
V\uae40\uc778\ud638
p37
sI39
V\uc774\uc724\uad6c
p38
sI40
V\ub098\uc6c5\ubc30
p39
sI41
g5
sI42
V\uc870\ud559\ud604
p40
sI43
V\uae40\uc644\uc218
p41
sI44
V\ubb38\uc77c\uad8c
p42
sI45
V\ucc44\ub355\uc11d
p43
sI46
V\uc724\uacbd\ud654
p44
sI47
V\ud669\ub3d9\uc77c
p45
sI48
V\uac15\ud76c\ud0dc
p46
sI49
V\uae40\uc591\uc77c
p47
sI50
V\uc815\uc0c1\ud658
p48
sI51
V\uae40\uc9c4\ud0dc
p49
sI52
V\ub3d9\uad6c
p50
sI53
g35
sI54
V\uc774\ub3d9\ubcf5
p51
sI55
V\uc774\ud68c\ucc3d
p52
sI56
V\uae40\ud64d\uc2e0
p53
sI57
V\ubc15\ucc2c\uc885
p54
sI58
V\uae40\uc885\ud544
p55
sI59
V\uae40\ub300\uc911
p56
sI60
V\uc804\uc601\uc218
p57
sI61
V\uae40\ud559\uc6d0
p58
sI62
V\uae40\ucc3d\ud76c
p59
sI63
V\uae40\uc6b0\uc911
p60
sI64
V\uc774\ud64d\uad6c
p61
sI65
V\uc774\uc900\uc0c1
p62
sI66
V\uacf5\uc815\ud55c
p63
sI67
V\uc190\ubd09\uc219
p64
sI68
V\uc774\uc11d\ud0dc
p65
sI69
V\ud568\ub300\uc601
p66
sI70
V\uae40\ud55c\uae38
p67
sI71
V\uae40\uacbd\ud638
p68
sI72
g52
sI73
V\uc774\uae30\ud0dd
p69
sI74
V\uc720\uc900\uc0c1
p70
sI75
V\uc815\uc0c1
p71
sI76
g53
sI77
V\uc774\ub355\ud654
p72
sI78
V\uc815\ud55c\uc6a9
p73
sI79
V\uae40\uc885\uc5f0
p74
sI80
V\uad8c\uc0ac\uc7a5
p75
sI81
V\uadf8\ub808\uc774\uc2a4
p76
sI82
V\ubc15\uc601\ud6c8
p77
sI83
V\uae40\uc601\ubc30
p78
sI84
V\uc2dc\uc548
p79
sI85
V\uae40\uc6d0\ud0dc
p80
sI86
V\ud55c\uc740
p81
sI87
V\uc1a1\uc131\uc218
p82
sI90
V\uc815\uad11\uc601
p83
sI91
V\uc624\ud601\uaddc
p84
sI92
V\ubc15\ucda9\ud638
p85
sI93
V\ucd5c\uc21c\uc601
p86
sI94
V\uc6b0\ub9ac\ub098\ub77c
p87
sI95
V\uae40\uc815\uad6d
p88
sI96
V\ucd5c\uc7ac\uc2b9
p89
sI97
V\uae40\uc120\uaddc
p90
sI98
V\uc774\ud615\ub0a8
p91
sI99
V\uae40\uc0c1\ud604
p92
s.