(dp1
S'24'
p2
I0
sS'25'
p3
I0
sS'26'
p4
I0
sS'27'
p5
I0
sS'20'
p6
I0
sS'21'
p7
I0
sS'22'
p8
I0
sS'23'
p9
I0
sS'28'
p10
I0
sS'29'
p11
I0
sS'0'
I0
sS'4'
I0
sS'8'
I0
sS'59'
p12
I0
sS'58'
p13
I0
sS'55'
p14
I0
sS'54'
p15
I0
sS'57'
p16
I0
sS'56'
p17
I0
sS'51'
p18
I0
sS'50'
p19
I0
sS'53'
p20
I0
sS'52'
p21
I0
sS'88'
p22
I0
sS'89'
p23
I0
sS'82'
p24
I0
sS'83'
p25
I0
sS'80'
p26
I0
sS'81'
p27
I0
sS'86'
p28
I0
sS'87'
p29
I0
sS'84'
p30
I0
sS'85'
p31
I0
sS'3'
I0
sS'7'
I0
sS'39'
p32
I0
sS'38'
p33
I0
sS'33'
p34
I0
sS'32'
p35
I0
sS'31'
p36
I0
sS'30'
p37
I0
sS'37'
p38
I0
sS'36'
p39
I0
sS'35'
p40
I0
sS'34'
p41
I0
sS'60'
p42
I0
sS'61'
p43
I0
sS'62'
p44
I0
sS'63'
p45
I0
sS'64'
p46
I0
sS'65'
p47
I0
sS'66'
p48
I0
sS'67'
p49
I0
sS'68'
p50
I0
sS'69'
p51
I0
sS'2'
I0
sS'6'
I0
sS'91'
p52
I0
sS'90'
p53
I0
sS'93'
p54
I0
sS'92'
p55
I0
sS'95'
p56
I0
sS'94'
p57
I0
sS'97'
p58
I0
sS'96'
p59
I0
sS'11'
p60
I0
sS'10'
p61
I0
sS'13'
p62
I0
sS'12'
p63
I0
sS'15'
p64
I0
sS'14'
p65
I0
sS'17'
p66
I0
sS'16'
p67
I0
sS'19'
p68
I0
sS'18'
p69
I0
sS'48'
p70
I0
sS'49'
p71
I0
sS'46'
p72
I0
sS'47'
p73
I0
sS'44'
p74
I0
sS'45'
p75
I0
sS'42'
p76
I0
sS'43'
p77
I0
sS'40'
p78
I0
sS'41'
p79
I0
sS'1'
I0
sS'5'
I0
sS'9'
I0
sS'77'
p80
I0
sS'76'
p81
I0
sS'75'
p82
I0
sS'74'
p83
I0
sS'73'
p84
I0
sS'72'
p85
I0
sS'71'
p86
I0
sS'70'
p87
I0
sS'79'
p88
I0
sS'78'
p89
I0
s.