(dp1
S'24'
p2
S'422'
p3
sS'25'
p4
S'422'
p5
sS'26'
p6
S'422'
p7
sS'27'
p8
S'14'
p9
sS'20'
p10
S'422'
p11
sS'21'
p12
S'14'
p13
sS'22'
p14
S'14'
p15
sS'23'
p16
S'331'
p17
sS'28'
p18
S'14'
p19
sS'29'
p20
S'994'
p21
sS'0'
S'14'
p22
sS'4'
S'13'
p23
sS'8'
S'331'
p24
sS'59'
p25
S'331'
p26
sS'58'
p27
S'14'
p28
sS'55'
p29
S'14'
p30
sS'54'
p31
S'14'
p32
sS'57'
p33
S'14'
p34
sS'56'
p35
S'422'
p36
sS'51'
p37
S'422'
p38
sS'50'
p39
S'14'
p40
sS'53'
p41
S'422'
p42
sS'52'
p43
S'422'
p44
sS'88'
p45
S'43'
p46
sS'89'
p47
S'422'
p48
sS'82'
p49
S'43'
p50
sS'83'
p51
S'14'
p52
sS'80'
p53
S'14'
p54
sS'81'
p55
S'43'
p56
sS'86'
p57
S'994'
p58
sS'87'
p59
S'14'
p60
sS'84'
p61
S'14'
p62
sS'85'
p63
S'14'
p64
sS'3'
S'43'
p65
sS'7'
S'43'
p66
sS'39'
p67
S'14'
p68
sS'38'
p69
S'422'
p70
sS'33'
p71
S'331'
p72
sS'32'
p73
S'14'
p74
sS'31'
p75
S'331'
p76
sS'30'
p77
S'422'
p78
sS'37'
p79
S'15'
p80
sS'36'
p81
S'14'
p82
sS'35'
p83
S'14'
p84
sS'34'
p85
S'43'
p86
sS'60'
p87
S'43'
p88
sS'61'
p89
S'14'
p90
sS'62'
p91
S'331'
p92
sS'63'
p93
S'121'
p94
sS'64'
p95
S'15'
p96
sS'65'
p97
S'121'
p98
sS'66'
p99
S'14'
p100
sS'67'
p101
S'994'
p102
sS'68'
p103
S'331'
p104
sS'69'
p105
S'14'
p106
sS'2'
S'14'
p107
sS'6'
S'13'
p108
sS'91'
p109
S'121'
p110
sS'90'
p111
S'14'
p112
sS'93'
p113
S'14'
p114
sS'92'
p115
S'422'
p116
sS'95'
p117
S'422'
p118
sS'94'
p119
S'422'
p120
sS'97'
p121
S'422'
p122
sS'96'
p123
S'322'
p124
sS'11'
p125
S'121'
p126
sS'10'
p127
S'14'
p128
sS'13'
p129
S'331'
p130
sS'12'
p131
S'43'
p132
sS'15'
p133
S'142'
p134
sS'14'
p135
S'14'
p136
sS'17'
p137
S'14'
p138
sS'16'
p139
S'14'
p140
sS'19'
p141
S'422'
p142
sS'18'
p143
S'14'
p144
sS'48'
p145
S'14'
p146
sS'49'
p147
S'422'
p148
sS'46'
p149
S'43'
p150
sS'47'
p151
S'331'
p152
sS'44'
p153
S'14'
p154
sS'45'
p155
S'43'
p156
sS'42'
p157
S'422'
p158
sS'43'
p159
S'114'
p160
sS'40'
p161
S'14'
p162
sS'41'
p163
S'422'
p164
sS'1'
S'14'
p165
sS'5'
S'14'
p166
sS'9'
S'14'
p167
sS'77'
p168
S'532'
p169
sS'76'
p170
S'121'
p171
sS'75'
p172
S'422'
p173
sS'74'
p174
S'14'
p175
sS'73'
p176
S'14'
p177
sS'72'
p178
S'14'
p179
sS'71'
p180
S'43'
p181
sS'70'
p182
S'331'
p183
sS'79'
p184
S'422'
p185
sS'78'
p186
S'422'
p187
s.