(lp1
V\uc911\uc2ec,\uc791\uac00,\ub2e4\uc591,\uc791\ud488,\ubd84\ub2e8,\ud604\uc2e4,\uc774\uc288,\uc608\uc220,\uc5ed\ud560,\ubb38\uc81c\uc758\uc2dd,
p2
aV\uc9c0\uc5ed,\uc0ac\ub9bd,\uc0ac\ub9bd\ubbf8\uc220\uad00,\ubbf8\uc220\uad00,\ubd84\ub2e8,\ubb38\uc81c,\uc5ed\ubd80\uc871,\uc55e,\uacf5\uacf5,\uacf5\uacf5\ubbf8\uc220\uad00,\uad00\uc2ec,
p3
aV\ubd84\ub2e8\uad6d\uac00,\ubd84\ub2e8\uad6d\uac00\uc784,\uc784,\ubb38\uc81c,\uc791\ud488,\uc8fc\uc81c,\uace0\ubbfc,\uc791\uac00,\ub9cc\ud07c,\ud604\uc2e4,\uc678\uba74,\ubd84\ub2e8,\ud604\uc2e4,\uc791\ud488,\uadf9\uc18c\uc218,\uc791\uac00,\uc721\uc131,\uadc0,
p4
aV\uc218,\uc815\uc6d0,\uc744,\uc8fc\uc81c,\uc138\uacc4,\uc720\uc77c,\ubd84\ub2e8,\ubd84\ub2e8\uad6d\uac00\uc774\uc790,\uad6d\uac00,\uc774\uc790,\uadfc\ub798,\uae34\uc7a5\uac10,\uac10\ub3c4,\uad70\uc0ac,\uad70\uc0ac\ub300\uce58\uc9c0\uc5ed,\ub300\uce58,\uc9c0\uc5ed,\uc774\ubaa9,\uc624\ub298,\uc8fc\ubaa9,\uae30\ud68d,
p5
aV\ubd84\ub2e8\uad6d\uac00,\uae30\uc5c5\uc778,\uc18c\uba85\uac10,
p6
aV\uc774\ubc88,\ud589\uc0ac,\ub9c8,\uc8fc,\ub300,\ucd1d\ud1b5,\ucd5c\uadfc,\ub9cc\uacfc,\uc911\uad6d,\ubd84\ub2e8,\uc5ed\uc0ac,\uc5b8\uae09,\ud55c\ubc18\ub3c4,\uc0c1\ud669,\uacf5\uac10,\uc11c\uc2e0,
p7
ag7
aV\uc8fc\uc81c\uac00,\ud604\ub300\uc131,\ud761\uc218,\uc5ec\uae30,\uc2dd\ubbfc\uc9c0,\ub0c9\uc804,\ubd84\ub2e8,\ub4f1,3,3\uac00\uc9c0,\uac00\uc9c0,\uc2dc\ub300,\ub0a8\ubd81,\uac74\ucd95,\uc9c4\ud654,\ubb38\uc81c,\uc0dd\uac01,
p8
aV\uc6b0\ub9ac,\ubbfc\uc871,\ubbfc\uc871\uc0ac\ud68c,\uc0ac\ud68c,\ub2f9\uba74,\ud569\ub9ac\uc801,\ud1b5\uc77c,\ubc29\ubc95,\uc0dd\uac01,\ub73b,\ucc45,\ubd84\ub2e8,\ubd84\ub2e8\uc9c8\uace1,\uc9c8\uace1,\uc5ed,\uc5ed\uc0ac\uc0c1,\uc0ac\uc0c1,\uc5f0\uc6d0,\uc870\uac74,\uacfc\uac70,\uc704\ud5d8,\uadf9\ubcf5,\uadf9\ubcf5\ubc29\ud3b8,\ubc29\ud3b8,\uc81c\uc2dc,\uc815\ud655,\ub54c\ubb38,\uacfc\uc815,\uc124\uba85,
p9
aV\ub0a8\ubd81,\uc790\uae30,\uc911\uc2ec\uc801,\uc0dd\uac01,\ub098,\uc5ed,\uc5ed\uc9c0\uc0ac\uc9c0\ud558,\uc9c0\uc0ac,\uc9c0\ud558,\ud654\ud574,\ubd84\uc704\uae30,\uc57c,\ubd84\ub2e8,\ub3d9\ubd81\uc544,\ud3c9\ud654,\ubb38\uc81c,\ud574\uacb0,\uc2e4\ub9c8\ub9ac,\uc218,\ubc15\uadfc,\ubc15\uadfc\ud61c,\ud61c,\uc815\ubd80,\ub300\ubd81,\uc815\ucc45,\ud1b5\uc77c,\ubb38\uc81c,\uc800,2,\uc774\uba85,\uc774\uba85\ubc15,\ubc15,
p10
aV\ub3c5\uc790,\ud55c\ubc18\ub3c4,\ubd84\ub2e8,\uc6d0\uc778,\uc5ed\uc0ac,\uc815\ud655,\ubc14\ub78c,\ub178\ub825,21,21\uc138\uae30,\uc138\uae30,\uc0c8,\ubbfc\uc871\uc0ac,\ubc29\ud5a5,\uc80a\uc740\uc774,
p11
aV1000,1000\ub9cc,\ub9cc,\uc774\uc0b0\uac00\uc871,\uc544\ud514,\uce58\uc720,194,194\uac1c\uad6d,\uac1c\uad6d,\uc2e0\uc559,\uc870\uad6d,\ubd84\ub2e8,\ubb38\uc81c,\uccad\uc0b0,\uac00\uc815,\uac00\uc815\uad50\ud68c,\uad50\ud68c,\uc8fc\ub3c4,\uac01\uc885,\ud1b5\uc77c,\ud1b5\uc77c\uc6b4\ub3d9,\uc6b4\ub3d9,\ud558\ub098\ub2d8,\uc758,\uc774\ub984,\uc544\ub798,\ubd81\ucabd,\uc8fc\uccb4,\uc8fc\uccb4\uc0ac\uc0c1,\uc0ac\uc0c1,\uc18c\ud654,\uadf9\ubcf5,\ud1b5\uc77c\uc870\uad6d,\uc870\uad6d,\uc774\ub8e9,
p12
aV\ud1b5\uc77c,\uc6b0\ub9ac,\uc2dc\ub300\uc801,\uacfc\uc81c,60,60\ub144,\ub144,\ub0a8\ubd81,\ub0a8\ubd81\ubd84\ub2e8,\ubd84\ub2e8,\uc5f4\ub9dd,\uc77c,
p13
aNaV\uac1c\uc131,\uac1c\uc131\uacf5\ub2e8,\uacf5\ub2e8,\uc704\ud611,\ubbfc\uc871,\uc2ec\uc7a5,\ube44\uc218,\ud589\uc704,\ubd84\ub2e8,50,50\ub144,\ub144,\ub9cc,\ub0a8,\ubd81,\ub73b,\uc77c\uad70,\ud654\ud574,\ud654\ud574\ud611\ub825,\ud611\ub825,\uc0b0\uc2e4,\uac1c\uc131,\uac1c\uc131\uacf5\ub2e8,\uacf5\ub2e8,\ubcfc\ubaa8,\ud55c\ubc18\ub3c4,\ud3c9\ud654,\uc704\ud611,\ubd81\ud55c,\uc0dd\ub5bc,\uc774\uc720,\ud569\ub9ac\ud654,\uc218,
p14
aV\uc0dd\uac01,\uc544\uc774,\ubc18\uc751,\ubd81\ud55c,\uc0c1\ud669,\ubd84\ub2e8,\ud604\uc2e4,\ub4f1,\uc544\uc774,\uccb4\ud5d8,\uccb4\ud5d8\ud559\uc2b5,\ud559\uc2b5,\uc774\ud574,
p15
aV\ub3c4\uc2dc,\ucef4\ud4e8\ud130,\uac8c\uc784,\uc544\uc774,\ub18d\uc5c5,\ub18d\ucd0c,\uc790\uc5f0,\ubd84\ub2e8,\ud604\uc2e4,\uacf5\ubd80,\ucd94\uc5b5,
p16
ag15
ag16
ag15
ag16
aV\uc678\uad6d,\ubd84\ub2e8,\ucca0\uc870\ub9dd,50,50\ub144,\ub144,\uc9c0\ucc99,\uace0\ud5a5,
p17
aV\uc548\ud30e,\uc0c1\ud669,\uace0\ub824,\ub54c,\ud55c\ubc18\ub3c4,\uc9c0\uc18d,\uc9c0\uc18d\uac00\ub2a5,\uac00\ub2a5,\ud3c9\ud654,\uad6c\uc870,\uc815\ucc29,\ubd84\ub2e8,\ud574\uc18c,\uc0dd\ud65c,\uc0dd\ud65c\uc138\uacc4,\uc138\uacc4,\ub179\uc0c9,\ub3d9\ubd81\uc544,\uc9c0\uc5ed,\uc9c0\uc5ed\uc5f0\ub300,\uc5f0\ub300,\uac00\uc9c0,\ucc28\uc6d0,\ubcf5\ud569\uc801,\ud544\uc694,
p18
aV\ud55c\uad6d,\ub3d9\ubd81,\ub3d9\ubd81\uc544\uc2dc\uc544,\uc544\uc2dc\uc544,\uad6d\uac00,\uc5f0\uacb0,\ud5c8\ube0c,\uc911\uc2ec\ucd95,\ub0a8\ubd81\ud55c,\ubd84\ub2e8,\ub0b4\uc154\ub110\ub9ac\uc998,\uc5f4\ub9b0,
p19
aV\ubd84\ub2e8,\uc9c1\ud6c4,\ub3d9\ub3c5\uc778,\uc720\uc785,\uc0c1\ud669,\uc11c\ub3c5,\uac04\ucca9,\uc5fc\ub450,\uacf5\ubb34\uc6d0,\uacbd\uc6b0,\ucca0\uc800,\uac80\uc99d,\ubb38\uc81c,\ucc44\uc6a9,
p20
aV\ucd5c\uadfc,\ubd81,\ubd81\ud575,\ud575,\ubb38\uc81c,\ub0a8\ubd81,\uac04,\uac08\ub4f1,\uc870\uc7a5,\ub54c,\uad70\ub300,\uac04,\uc544\ub4e4,\uac71\uc815,\uc5b4\uba38\ub2c8,\uc0dd\uac01,\uac00\uc2b4,\ub0a8\ubd81,\uc80a\uc740\uc774,\ubd84\ub2e8,\ub54c\ubb38,\uc0b4\ubc8c,\uacf3,\uccad\ucd98,\ud604\uc2e4,
p21
aV\ubd04,\ucd95\ud558,\uc0c8\ud574,\uc778\uc0ac,\uc778\uc0ac\ucc28,\ucc28,\uc9c0\uc778,\uc77c,
p22
aNaV\ubd81\ud55c,\uc6b0\ub9ac,\ubd84\ub2e8,\ubd84\uc5f4,\ub3c4\ubc1c,\ub300\uc2e0,\ub300\ud654,\ubaa8\uc0c9,\uc810,\uc608\uce21,
p23
aV\ud3c9,\ub3d9\uacc4,\ub3d9\uacc4\uc62c\ub9bc\ud53d,\uc62c\ub9bc\ud53d,\uc720\uce58,\uacfc\uc815,2,2\ubc88,\ubc88,\uc2e4\ud328,\uc774\uc720,\uacbd\uc7c1,\uad6d\uac00,\ud55c\ubc18\ub3c4,\ubd84\ub2e8,\uad6d\uac00\ub77c,\ub77c,\uc704,\uc9c0,\ud0d3,
p24
ag24
aV\uc81c\uc778,\uc815,\ud2b8\ub80c\uce74,\uc18c\uc124,\uc885\ub958,\ubd84\ub2e8,\uc744,\uc6b0\ub9ac,\uc790\uc2e0,\ub0b4\uba74,\uadf8,\uc791\ud488,\ubbf8\uad6d,\ubbf8\uad6d\ubb38\ud559\uc778,\ubb38\ud559\uc778,\ub3d9\uc2dc,\ud55c\uad6d,\ud55c\uad6d\ubb38\ud559,\ubb38\ud559,
p25
aV\ub3c5\uc77c,\ud55c\uad6d,2,2\ucc28,\ucc28,\uc138\uacc4,\uc138\uacc4\ub300\uc804,\ub300\uc804,\ud6c4,\ubd84\ub2e8,\uad6d\uac00,\uac01\uac01,\ub77c\uc778,\ub77c\uc778\uac15,\uac15,\uae30\uc801,\ud55c\uac15,\uac15\uad6d,\uc810,\ub2e8\uc77c,\ub2e8\uc77c\ubbfc\uc871,\ubbfc\uc871,\uc9d1\ub2e8,\uc9d1\ub2e8\ubb38\ud654,\ubb38\ud654,\ud3c9\ub4f1,\ud3c9\ub4f1\uc758\uc2dd,\uc758\uc2dd,\ub2ee\uc740\uaf34,
p26
aV\uc18c\ub828,\uc2a4\ud0c8\ub9b0,\uc774\uc2b9\ub9cc,\uc74d,\ubc1c\uc5b8,9,9\uac1c\uc6d4,\uac1c\uc6d4,\uc804,\ubd81\ud55c,\ub2e8\ub3c5,\uc778\ubbfc,\uc778\ubbfc\uc815\ubd80,\uc815\ubd80,\uc218\ub9bd,\uc218\ub9bd\ud558\ub77c,\ud558\ub77c,\uc9c0\ub839,\uadf8,\uad70\uc815,\uae40\uc77c\uc131,\uc784\uc2dc,\uc784\uc2dc\uc815\ubd80,\uaca9,\uc778\ubbfc\uc704\uc6d0\ud68c,\uc704\uc6d0\ud68c,\uc758\uc7a5,\uc0ac\uc2e4\uc0c1,\ub2e8\ub3c5\uc815\ubd80,\ubbf8\uad6d,\uc785\uc7a5,\uc811\uc810,\ubd88\uac00\ub2a5,\uc77c,\ud310\ub2e8,\ud558,\ub0a8\ud55c,\uc790\uc720,\uc790\uc720\ubbfc\uc8fc\uc8fc\uc758,\ubbfc\uc8fc,\ubbfc\uc8fc\uc8fc\uc758,\uc8fc\uc758,\ub2e4\uc74c,\ub2e8\uacc4,\ud1b5\uc77c,\ud1b5\uc77c\uc815\ubd80,\ucd94\uad6c,\uad6c\uc0c1,\uc18d,\uc6b0\ud30c,\uad00\uc810,\ub0c9\uc804,\ub0c9\uc804\uccb4\uc81c,\uccb4\uc81c,\ud615\uc131,\ub2f9\uc2dc,\uc8fc\uc7a5,\ucd5c\uc120,\uc120\ud0dd,\ubd84\ub2e8,\ucc45\uc784,
p27
aV\ubd84\ub2e8,\uc774\ud6c4,60,60\uc5ec,\uc5ec,\ub144,\ub54c\ubb38,\ub0a8\ubd81,\uac04,\uc720\uc804\uc801,\ubcc0\ud654,\uc601\uc591,\uc601\uc591\uc0c1\ud0dc,\uc0c1\ud0dc,\ucc28\uc774,\uc720\uc804\uc790,\ubc1c\ud604,\uc218,
p28
aV\uac15\uc6d0,\uac15\uc6d0\ub3c4,\ub3c4,\ucca0,\ubd84\ub2e8,\ub099\ud6c4,\uc774\ubbf8\uc9c0,\ud3c9\ud654,\ud3c9\ud654\ub3c4\uc2dc\uc774\uc790,\ub3c4\uc2dc,\uc774\uc790,\uc0dd\ud0dc,\uc0dd\ud0dc\ubb38\ud654\uad00\uad11\ub3c4\uc2dc,\ubb38\ud654,\uad00\uad11,\ucca0,\uba74\ubaa8,\uc138\uacc4,\uba54\uc2dc\uc9c0,\uc790\ub9ac,
p29
aV\uacfc\uac70,\uc815\ubd80,\ub300\ubd81,\uc815\ucc45,\ubd84\ub2e8,\ubd84\ub2e8\uad00\ub9ac,\uad00\ub9ac,\ub300,\uacb0\uacfc,\uc6b0\ub9ac,\ubd81,\ubd81\ud575,\ud575,\ubd81\ud55c,\uac1c\ud601,\uac1c\ud601\uac1c\ubc29,\uac1c\ubc29,
p30
aV\ub300\ud55c,\ub300\ud55c\ubbfc\uad6d,\ubbfc\uad6d,\uad6d\ubbfc,\ubd84\ub2e8,\ud3b8\uc548,\ub300\ubd80\ubd84,\ubd88\uc548,\ubb34\uc5c7,\ubbfc,\uad00,\uad70,\uacbd,\ubaa8\ub450,\uc548\ubcf4,\uc0ac\uba85\uac10,\ub54c\ubb38,\uc0dd\uac01,
p31
aV\ubd84\ub2e8,\uad74\ub808,\uc790\uc720,
p32
aV\ub2e4\uc74c,10,10\ub144,\ub144,\ubd84\ub2e8,\ubd84\ub2e8\uccb4\uc81c,\uccb4\uc81c,\uadf9\ubcf5,\ub2f9\uc758,\uc911\uc2ec,\ub178\ub3d9\uc790,\ubbfc\uc911,\ud1b5\uc77c,\ud1b5\uc77c\uacbd\uc81c,\uacbd\uc81c,\uc2e4\ud604,\uc815\uaddc\uc9c1,\ucca0\ud3d0,\uae30\ucd08,\uae30\ucd08\ub18d\uc0b0\ubb3c,\ub18d\uc0b0\ubb3c,\uad6d\uac00,\uad6d\uac00\uc218\ub9e4,\uc218\ub9e4,\uc2e4\uc2dc,\uc0ac\ud68c,\uc0ac\ud68c\uacf5\uacf5\uc131,\uacf5\uacf5\uc131,\ud575\uc2ec,\ud575\uc2ec\uc815\ucc45,\uc815\ucc45,\uacb0\uc815,
p33
aV\uc138\uacc4,\uc720\uc77c,\ubd84\ub2e8,\ubd84\ub2e8\uad6d\uac00,\uad6d\uac00,\ub300\ud55c,\ub300\ud55c\ubbfc\uad6d,\ubbfc\uad6d,\ub0a8\ubd81,151,151\ub9c8\uc77c,\ub9c8\uc77c,248,248\u339e,\u339e,\ucca0\uc870\ub9dd,6,25,\uc804\uc7c1,\uc0c1\uc9d5,\ud3c9\ud654,\uacbd\uacc4\uc120,\uc790\uc720,\uc790\uc720\ubbfc\uc8fc\uc8fc\uc758,\ubbfc\uc8fc,\ubbfc\uc8fc\uc8fc\uc758,\uc8fc\uc758,\uc218\ud638,\ub545,\ud53c,\uc720\uc5d4,21,21\uac1c\uad6d,\uac1c\uad6d,\ucc38\uc804,\ucc38\uc804\uc6a9\uc0ac,\uc6a9\uc0ac,\ud76c\uc0dd,\ud76c\uc0dd\uc815\uc2e0,\uc815\uc2e0,\ubcf4\uc740,\ubcf4\uc740\uba54\ub2ec,\uba54\ub2ec,\uc81c\uc791,\uc804\ub2ec,\uc804\ub2ec\ud0a4,\ud0a4,
p34
aV\ud3c9\ud654,\ud3c9\ud654\ucea0\ud504,\ucea0\ud504,\ucc38\uc5ec,\uc678\uad6d\uc778,\uce5c\uad6c,\ud55c\ubc18\ub3c4,\ubd84\ub2e8,\uc598\uae30,\uc774\ubc88,\uc548\ubcf4,\uc548\ubcf4\ud22c\uc5b4,\ud22c\uc5b4,\uc804\uc7c1,\uacc4\uae30,
p35
aV\ubd84\ub2e8,\ub0a8\ubd81\ud55c,\uc88c\uc775,\uc88c\uc775\uc138\ub825,\uc138\ub825,
p36
aV\uc9c4\ubcf4,\uc9c4\ubcf4\uc815\ub2f9,\uc815\ub2f9,\uc548\ubcf4,\uc548\ubcf4\ubd88\uc548\uc138\ub825,\ubd88\uc548,\uc138\ub825,\ubd88\uc2e0,\uc774\uc5b4\uc9c4,\uc545\uc758,\uc545\uc758\uc801\uc778,\uc801\uc778,\uc0c9\uae54\ub860,\ubc29\uc5b4,\ubd84\ub2e8,\uc804\uc7c1,\uc774\ub150,\ud2b8\ub77c,\ud2b8\ub77c\uc6b0\ub9c8,\uc6b0\ub9c8,\uc548\ubcf4\ubd88\uc548,\uc8fc\ubaa9,
p37
aV\ubd84\ub2e8,\uc804\uc7c1,\uc6b0\ub9ac,\uad6d\ubbfc,\uc218,\uc774\ub150,\ud2b8\ub77c,\ud2b8\ub77c\uc6b0\ub9c8\ub098,\uc6b0,\ub9c8\ub098,\uc548\ubcf4,\ubd88\uc548,\uc8fc\ubaa9,\uc751\ub2f5,
p38
aV\ubd84\ub2e8,\ud3c9\ud654,\uacbd\uacc4\uc120,\uc0c1\uc9d5,\ud3d0,\ud3d0\ucca0\uc870\ub9dd,\ucca0\uc870\ub9dd,\ubcf4\uc740,\uba54\ub2ec,\uc758\ubbf8,\uc77c,\uc5ec\uae30,\ucc38\uc5ec,\uad6d\ubbfc,\uae30\uc5c5\uc778,\ud3ec\uc2a4,\ud3ec\uc2a4\ucf54,\ucf54,\uc131\uaca9,\ubd80\ud569,
p39
aV\uc77c\uc81c,\uc77c\uc81c\uc2dc\ub300,\uc2dc\ub300,\uc2dc\uc791,\uc544\ub3d9,\uc544\ub3d9\ubb38\ud559,\ubb38\ud559,\uc804\ud1b5,\ubd84\ub2e8,1970,1970\ub144\ub300,\ub144\ub300,\uad8c\uc704\uc8fc\uc758,\uc815\uad8c,\ud558,\uc0ac\uc7a5,\uce21\uba74,\ucc3d,\ucc3d\ube44,\ube44,\ubd88\ubaa8\uc9c0,\uac1c\ucc99,\uc544\ub3d9,\uc544\ub3d9\ubb38\ud559,\ubb38\ud559,\ub3c4\ub355,\uad50\ud6c8,\ud1b5\ub150,\uc544\uc774,\ud604\uc2e4,\ubc18\uc601,\ub3d9\ud654,\ud328\ub7ec\ub2e4\uc784,
p40
aV\ucd5c\ubd81\ub2e8,\uc9c0\uc5ed,\uc704\uce58,\ud654\ucc9c,\ub0a8\ubd81,\ub300\uce58,\ubd84\ub2e8,\ud604\uc7a5,\ud604\uc7a5\uc774\uc790,\uc774\uc790,\uc790\uc5f0,\uc0dd\ud0dc,\ud3c9\ud654,\ub3c4\uc2dc,\ud559\uc5c5,\uc5f0\uad6c,\uc131\uacfc\ubb3c,\uccad\uc18c\ub144,\ud3c9\ud654,\ud3c9\ud654\ud1b5\uc77c,\ud1b5\uc77c,\ud76c\ub9dd,
p41
ag41
aV\uc721\ud0c4,\uc721\ud0c410\uc6a9\uc0ac,10,\uc6a9\uc0ac,\ud76c\uc0dd,\ud76c\uc0dd\uc815\uc2e0\uacfc,\uc815\uc2e0\uacfc,\uc704\uad6d,\uc704\uad6d\ud5cc\uc2e0,\ud5cc\uc2e0,\uc560\uad6d\uc2ec,\uacbd\uc758,\ubaa9\uc228,\ub098\ub77c,\uc704\uc5c5,
p42
aV\ubd81,\ubd81\ud575,\ud575,\uc2e4\ud5d8,\ud55c\ubc18\ub3c4,\ub3d9\ubd81,\ub3d9\ubd81\uc544\uc2dc\uc544,\uc544\uc2dc\uc544,\uc0dd\uba85,\uc548\uc804,\ud3c9\ud654,\ud56d\uad6c\uc801,\uc704\ud611,\ubfd0,\uad6d\uc81c,\uad6d\uc81c\uc0ac\ud68c,\uc0ac\ud68c,\uc804\uccb4,\ud3c9\ud654\uc801,\uacf5\uc874,\ud589\uc704,\ubd84\ub2e8,\ubd84\ub2e8\uccb4\uc81c,\uccb4\uc81c,\uc548,\uace0\ud1b5,\ubbfc\uc871,\ubbfc\uc871\uacf5\ub3d9\uccb4,\uacf5\ub3d9\uccb4,\uc6b4\uba85,\uc2ec\uac01,\uc704\uae30,\uad6d\uba74,\ub3c4\ubc1c,\ud589\uc704,
p43
aV\uc9c4\ubcf4,\uc9c4\ubcf4\uc815\ub2f9,\uc815\ub2f9,\uc548\ubcf4,\uc548\ubcf4\ubd88\uc548,\ubd88\uc548,\uc138\ub825,\ubd88\uc2e0,\uc9c4\ubcf4,\uc9c4\ubcf4\uc815\ub2f9,\uc815\ub2f9,\ubd84\ub2e8,\uc804\uc7c1,\uc6b0\ub9ac,\uad6d\ubbfc,\uc218,\uc774\ub150,\ud2b8\ub77c,\ud2b8\ub77c\uc6b0\ub9c8,\uc6b0\ub9c8,\uc548\ubcf4,\uc548\ubcf4\ubd88\uc548,\ubd88\uc548,\uc8fc\ubaa9,\uc751\ub2f5,
p44
ag44
ag44
ag44
aV\ud1b5\uc77c,\ud1b5\uc77c\ud55c\uad6d,\ud55c\uad6d,\ub3d9\ubd81,\ub3d9\ubd813\uc131,3,\uc131,\uacbd\ud611,\uacbd\ud611\ub4f1,\ub4f1,\uc774\uc775,
p45
aV\ud55c\ubc18\ub3c4,\ud1b5\uc77c,\ub3d9\ubd81,\ub3d9\ubd81\uc544\uc2dc\uc544,\uc544\uc2dc\uc544,\uc9c0\uad6c\ucd0c,\uc815\uc758,\ud3c9\ud654,\ube44\uc804,
p46
aV\uc77c\uc0dd,\uad00\uc2ec,\ubd84\uc57c,\ubb38\uba85,\ubb38\uba85\uad50\ub958\ud559\uacfc,\uad50\ub958,\ud559\uacfc,\ubbfc\uc871\uc8fc\uc758,\ubd84\ub2e8,\ube44\uadf9,\ub0a8\ubd81,\uc11c\ub85c,\ud1b5\uc77c,\ub54c,
p47
aV\uae30\ub3c5\uad50,\uc2e0\uc559,\ud575\uc2ec,\uc608\uc218,\uadf8\ub9ac\uc2a4,\uadf8\ub9ac\uc2a4\ub3c4\uc758,\ub3c4\uc758,\uc2ed\uc790\uac00,
p48
ag48
aV\ubd81,\ubd81\ud575,\ud575,\uc704\uae30,\uace0\uc870,\uc2dc\uc810,\uad6d\uc81c,\uad6d\uc81c\uc0ac\ud68c,\uc0ac\ud68c,\uc758\uad6c\uc2ec,\uc8fc\ub205,\uc704\ucd95,\ud544\uc694,\ud575,\ubb34\uc7a5,\ub0a8\ubd81,\ubd84\ub2e8,\uad6c\uc870\uc801,\ubb38\uc81c,\ub54c\ubb38,\ubc18\uc138\uae30,\ub3d9\uc548,\uc874\uc7ac,\uc8fc\uc7a5,\ub9cc\ud07c,\uc815\ubd80,\uc5ec\ub860,\uc218\ub834,\uc77c,
p49
aV\uc77c\ubcf8,\uc2dd\ubbfc,\uc2dd\ubbfc\ud1b5\uce58,\ud1b5\uce58,\ub0a8\ubd81,\ubd84\ub2e8,\uacbd\ud5d8,\ud55c\uad6d\uc778,\uad00\uc810,\uc911\ub3d9,\uc5ed\uc0ac,\uc810,\uc720\ub7fd\uc778,\uad00\uc2ec,
p50
aV\uc81c\uad6d\uc8fc\uc758,\uce68\ub7b5,\uc77c\uc81c,\uc9c0\ubc30,\uc2dc\uc791,\ud55c\uad6d,\uadfc\ub300,\uadfc\ub300\ubb38\ud559,\ubb38\ud559,\ucc98\uc74c,\ucc38\uc5ec,\uc131\uaca9,\ud6c4,\ubd84\ub2e8,\uad70\uc0ac,\uad70\uc0ac\ub3c5\uc7ac,\ub3c5\uc7ac,\ubbfc\uc871,\ubbfc\uc911,\ub178\ub3d9,\ub178\ub3d9\ubb38\ud559,\ub4f1\uc7a5,\ucd5c\uadfc,\uc790\uc720\uc8fc\uc758,\uc2ec\ud654,\ud615\ud0dc,\ucc38\uc5ec\ubb38\ud559,
p51
aNaV\ube44\ubc00,\ube44\ubc00\ubb38\uc11c,\ubb38\uc11c,\uac00\uce58,\uc124\uba85,\uad6d\ub860,\uad6d\ub860\ubd84\uc5f4,\ubd84\uc5f4,\uc2ec\ud654,\uad6d\uc815\uc6d0,\uc77c,6,6\ub144,\ub144,\uc804,\ub0a8\ubd81,\ubd84\ub2e8,\uc55e,\ubd81\ud55c,\uc0c1\ub300,\uc601\ud5a5,
p52
aV\ubd84\ub2e8\uad6d\uac00,\uac00\ud1a8\ub9ad,\ubb34\uc5c7,
p53
aV\ub0a8\ubd81,\ubd84\ub2e8,\uc6b0\ub9ac,\uace0\ud1b5,\ub370\ub294,\ubbf8\uad6d,\uc18c\ub828,\ucc45\uc784,\uc885\uad50,\uc0c1\uadf9,\uc0c1\uc0dd,\ub3c4\ubaa8,\ub9cc\ud07c,\ub0a8\ubd81\ud1b5\uc77c,\ubb38\uc81c,\ub54c,\ub0a8\ubd81,\ud3c9\ud654\uc801,\ud1b5\uc77c,\ub7ec\uc2dc\uc544,\ub7ec\uc2dc\uc544\uc815\uad50\ud68c,\uc815\uad50\ud68c,\uae30\ub3c4,
p54
aV\uc804,\uc601\ud654\uc778,\ucf54\ub9ac\uc544,\ubd84\ub2e8,\uc544\ud514,\ubca0\ub97c\ub9b0,\ub0a8,\ub098\ub77c,\uc774\uc0c1,\uacf5\uac10,
p55
aV2013,2013\ub144,\ub144,\uccb4\uc81c\ub860,\ubc31,\uad50\uc218,\uc218\uc2ed,\ub144,\ub144\uac04,\uac04,\uc8fc\uc7a5,\ubd84\ub2e8,\ubd84\ub2e8\uccb4\uc81c\ub860,\uc758,\uc5f0\uc7a5,\ubd88\uacfc,\uac1d\uad00\uc801,\uc0b6,\ud604\uc2e4,\ubc18\uc601,\uc815\uad8c,\uad50\uccb4,\ub2f9,\ub2f9\uc704\uc131,\uc704\uc131,\uac15\uc870,\ud53c\ubd80,
p56
aV\ub9c8\uc9c0\ub9c9,\ubd84\ub2e8\uad6d\uac00,\ud55c\uad6d,\uc815\uc804,\ud734\uc804,\uc0c1\ud0dc,\uc810,\ud559\uc0dd,\ub098\ub77c,\uc0ac\ub791,\ub9c8\uc74c,\ud1b5\uc77c,\uc8fc\uc5ed,\uae30\ub300,
p57
aV\ubd84\ub2e8,\ud604\uc2e4,
p58
aV\uc790\ubcf8\uc8fc,\ubaa8\uc21c,\uacf5\uc0b0\uc8fc\uc758,\ucda9\ub3cc,\uac00\uc871,\ube44\uc815\uc0c1,\ubaa8\uc2b5,\uc6b0\ub9ac,\ubd84\ub2e8,\ud604\uc2e4,\uace0\ud1b5,\ud55c\ubc18\ub3c4,\ubaa8\ub450,\uc9c8\ubb38,\uc601\ud654,
p59
aV\uc11c\ub3c5,\uc815\ubd80,\ubd84\ub2e8,\uc774\uc0b0\uac00\uc871,\uc544\ud514,\uce58\uc720,\ub3d9\ub3c5,\uce58\ud558,\uace0\ud1b5,\uc8fc\ubbfc,\uad50\ub958,\ud611\ub825,\uc911\uc694\uc2dc,\uad50\ub958,\ud611\ub825,\ubbfc\uc871,\uc774\uc9c8\ud654,\ub370,\ub3c4\uc6c0,\uc11c\ub3c5,\uc815\ubd80,\ud310\ub2e8,
p60
ag60
aV\ubd84\ub2e8,\ub300\ub9bd,\uc774\ubbf8\uc9c0,\ud3c9\ud654,\uc0dd\uba85,\ub2f9\ucd08,\ubaa9\ud45c,\ub2ec\uc131,\ud3c9\uac00,\ub0b4\ub144,\uac00\uce58,\uc0ac\uc5c5,\uacc4\ud68d,
p61
aV\ub0a8\ubd81,\ubd84\ub2e8,\uad6c\uc870,\uc774\uc0c1,\uc720\uc9c0,\ud1b5\uc77c,\ud1b5\uc77c\uc870\uad6d,\uc870\uad6d,\uc77c\ubcf8,\ubbfc\ub2e8,\ucd1d\ub828,\ud1b5\uc77c,\ub4a4,\ub0a8\uacfc,\ubd81,\uc9c4\uc815,\ud558\ub098,\ub0b4\uc790,
p62
aV\ubd84\ub2e8,\ubd84\ub2e8\uad6c\uc870,\uad6c\uc870,\uc774\uc0c1,\uc720\uc9c0,\ud1b5\uc77c,\ud1b5\uc77c\uc870\uad6d,\uc870\uad6d,\ub370,\uc2dc\ub300,\uc2dc\uc791,\ubbfc\ub2e8,\ucd1d\ub828,\ud558\ub098,\uc77c\ubcf8,\ud1b5\uc77c,\ub0a8,\ubd81,\uc9c4\uc815,\ub178\ub825,
p63
aV\ub0a8\ubd81,\ubd84\ub2e8,\uc0c1\ud669,\ubd81\ud55c,\ub0a8\ud55c,\uac01\uacc4,\uac01\uacc4\uac01\uce35,\uac01\uce35,\ub300\uc815\ubd80,\uc804\ubcf5,\uc804\ubcf5\ud65c\ub3d9,\ud65c\ub3d9,\uacc4\uc18d,\uad6d\ub0b4,\uc815\ubcf4,\uc815\ubcf4\ud65c\ub3d9,\uac15\ud654,\uad6d\ub0b4,\uad6d\ub0b4\ud30c\ud2b8,\ud30c\ud2b8,\ud3d0\uc9c0,\ubd81\ud55c,\uc801\ud654,\uc801\ud654\ud601\uba85,\ud601\uba85,\uace0\uc18d\ub3c4\ub85c,\uc77c,
p64
ag64
ag64
aV\uc6b0\ub9ac,\uc57c\ub2f9,\uc2dc\uc808,\uad6d\uc815\uc6d0,\uac1c\ud601\ubc95,\uac80\ud1a0,\ubb34\uc0b0,\ubd84\ub2e8\uad6d\uac00,\uc810,\ub4f1,\ud604\uc2e4,\uc704\ud5d8,\uc704\ud5d8\uc694\uc18c,\uc694\uc18c,\ub54c\ubb38,
p65
aNaV\uc6b0\ub9ac,\ud1b5\uc77c,\ud604\uc7a5,\ubca0\ub97c\ub9b0,\ud3c9\ud654,\ud3c9\ud654\uc5f4\ucc28,\uc5f4\ucc28,\ucd9c\ubc1c,\uc120\uc5b8,\ubd84\ub2e8,\uadf9\ubcf5,\ud3c9\ud654,\ub3c5\uc77c,\ub3c5\uc77c\uad50\ud68c\uc758,\uad50,\ud68c\uc758,\uae30\ub3c4,\ud3c9\ud654\uc5f4\ucc28,\uc5f4\ucc28,\uc720\ub7fd,\uc544\uc2dc\uc544,\ub545,\ud55c\ubc18\ub3c4,\ud1b5\uacfc,\ub54c,\uacf3,\uadf8\ub9ac\uc2a4,\uadf8\ub9ac\uc2a4\ub3c4\uc758,\ub3c4\uc758,\uaf43,
p66
ag66
aV\uae40,\uae40\uae08\ud654,\uae08\ud654,\uc778\ubb3c,\ubd84\ub2e8,\ud604\uc2e4,\uc8fc\ubaa9,\uc810,\uac1c\ub9c9,\uac1c\ub9c9\uc791,\uc791,\uc120\uc815,
p67
aV\ubd84\ub2e8,\uc5ed\uc0ac,\ud1b5\uc77c,\ub300\ube44,\uc218,\uc0ac\ub8cc,\uade0\ud615,\uc218,\uc18c\ub828,\uc790\ub8cc,\ud5a5\ud6c4,\uacf5\uac1c,\uae30\ub300,
p68
aV\uc774\ubc88,\ud3c9\ud654,\ud3c9\ud654\ub300\uc7a5\uc815\uc740,\ub300\uc7a5,\uc815\uc740,6,25,25\uc804\uc7c1,\uc804\uc7c1,\uc815\uc804,\uc815\uc804\ud611\uc815,\ud611\uc815,60,60\uc8fc\ub144,\uc8fc\ub144,\uc6b0\ub9ac,\ubbf8\ub798\uc778,\uccad\ub144,\ub300\ud559\uc0dd,155,155\uba85,\uba85,155\ub9c8\uc77c,\ub9c8\uc77c,\ubd84\ub2e8,\uc870\uad6d,\uc5ed\uc0ac\uc801,\uad50\ud6c8,\uc81c\uac00,\ub3c4\uc804,\ud788,\ud788\ub9d0\ub77c\uc57c,\ub9d0\ub77c\uc57c,8000,\uae09,\uace0\ubd09,16,16\uc88c,\uc88c,\ub4f1,\ub4f1\uc815,\uc815,\ub3c4\uc804\uc815\uc2e0,\uc815\uc2e0,\uc744,\uc774,\uacf5\uc720,\ub9c8\ub828,\uc790\ub9ac,
p69
ag69
aV\ubc15\uadfc,\ubc15\uadfc\ud61c,\ud61c,\uc815\ubd80,\ud1b5\uc77c,\ud1b5\uc77c\uc815\ucc45,\uc815\ucc45,\uad6d\uc815,\uad6d\uc815\uae30\uc870,\uae30\uc870,\uacf5\uc2dd,\ud3ec\ud568,\ucd5c\ucd08,
p70
aV\uc62c\ud574,\ub0a8\ubd81,\ubd84\ub2e8,\uc9c0,68,68\ub144,\ub144,\uc774\uc81c,\ub0a8\ubd81\ud55c,\uac04,\ubd88\uc2e0,\ub300\uacb0,\uc2dc\ub300,\ud3c9\ud654,\ud1b5\uc77c,\ud55c\ubc18\ub3c4,\uc55e,\ud55c\ubc18\ub3c4,\uc2e0\ub8b0,\uc2e0\ub8b0\ud504\ub85c\uc138\uc2a4,\ud504\ub85c\uc138\uc2a4,\ud3c9\ud654,\uc815\ucc29,\ub0a8\ubd81\ud55c,\uacf5\ub3d9,\ubc1c\uc804,\uc218,\uae30\ub300,
p71
aV\uc21c\uac04,\uc5ed\ub0b4,\uad70\uc0ac\uc801,\ucda9\ub3cc,\uc704\ud5d8\uc131,\uc0c1\uc874,\ud55c\ubc18\ub3c4,\ubd84\ub2e8,70,70\ub144,\ub144,\uc9c0\uc18d,\uac00\uc6b4\ub370,\ubd81\ud55c,\ud575,\uac1c\ubc1c,\uacc4\uc18d,\uae34\uc7a5,\uc720\ubc1c,
p72
ag72
aV\uc815\ubd80,\uc9c0\uc6d0,\uc758\uc874,\uc790\uccb4,\uc9c4\ud589,\uc218,\ud3c9\uac00,\uc77c,\ubd84\ub2e8,\ud604\uc7a5,\uc801\ub300\uac10,\uace0\ucde8,\ud3c9\ud654,\uc774\ubc88,\uc5ec\ud589,\ub300\uc0c1,\uc815\ub840,
p73
aV\ub0a8\ubd81,\ubaa8\ub450,\uc0c1\ud638,\ubd88\uc2e0,\uc774\ud574\uad00\uacc4,\ub4f1,\ud3c9\ud654,\ub17c\uc758,\uc900\ube44,\ub2f9\uc0ac\uc790,\ub0a8\ubd81,\uac04,\uc2e0\ub8b0,\ud615\uc131,\uc77c\ucc28\uc801,\uacfc\uc81c,\uacfc\uc81c\uc774\uc9c0\ub9cc,\uc774\uc9c0\ub9cc,\uc801\ub300\uc801,\ubd84\ub2e8,\uccb4\uc81c,\uc720\uc9c0,\ud68c\ubcf5,\ubd88\uac00\ub2a5,\ub9cc\ud07c,\uc7a5\uae30\uc801,\ud3c9\ud654,\ud3c9\ud654\uccb4\uc81c,\uc804\ub7b5,\uc218\ub9bd,\ucd94\uc9c4,
p74
aV\uc120,\uc545,\uc774\ubd84\ubc95,\ub17c\ub9ac,\uc801\uc6a9,\ubd84\ub2e8,\uad6c\uc870,\uc18d,\ucd5c,\uc6d4\ubd81,\uc790\uc720,\ud3c9\uac00,
p75
aV\uc804\uc7c1,\ubb38\uc81c,\ubd84\ub2e8,\ud574\uacb0,\uc218,
p76
aV\uc9c4\ubcf4,\uc9c4\ubcf4\uc815\uce58,\uc815\uce58,\uace0\ube44,\ub54c,\ubb38\uc81c,\uace0\ub1cc,\ubcf5\ud310,\ud601\uc2e0,\uc2e4\ud328,\uc77c,\uc8fc\ub9c8\ub4f1,
p77
aV\ud55c\ubc18\ub3c4,\uc8fc\ubcc0,\ubd84\ub2e8,\uc6d0\uc2ec\ub825,\uc744,\uadf9\ubcf5,\ud1b5\uc77c,\uc790\uccb4,\uad6c\uc2ec\ub825,\uac15\ud654,\ubc29\uc548,\uace0\ubbfc,\ub54c,
p78
aV\uc790\uc720,\uc790\uc720\ubbfc\uc8fc\uc801,\ubbfc\uc8fc\uc801,\uae30\ubcf8,\uc9c8\uc11c,\ub300\ud55c,\ub300\ud55c\ubbfc\uad6d,\ubbfc\uad6d,\uc874\ub9bd,\ubc1c\uc804,\uadfc\uac04,\uc815\uce58\uc801,\uc785\uc7a5,\ucd08\uc6d4,\ud5cc\ubc95,\ud575\uc2ec,\ud575\uc2ec\uac00\uce58,\uac00\uce58,\uc0ac\uba85\uac10,\ub0a8\ubd81,\ubd84\ub2e8,\ud604\uc2e4,\uc778\uc2dd,\ubc14\ud0d5,\uad6d\uac00,\uad6d\uac00\uc548\ubcf4,\uc548\ubcf4,\uc704\ud611,\uc2dc\ub3c4,
p79
aV\uc77c\uc81c,\uc2dc\ub300,\uad11\ubcf5,\uc774\ud6c4,\ubd84\ub2e8,\uc2dc\uae30,\ub18d\uad6c,\uc18c\uc7ac,\ub4dc\ub77c\ub9c8,\ucc98\uc74c,\uc758\uc544,
p80
aV60,60\uc5ec\ub144,\uc5ec,\ub144,\uc774\uc0c1,\ub0a8\ubd81,\ub0a8\ubd81\ubd84\ub2e8,\ubd84\ub2e8,\ubb38\ud654,\ubb38\ud654\ub2e8\uc808,\ub2e8\uc808,\ubd81\ud55c,\uc804\ud1b5,\uc804\ud1b5\uc74c\uc2dd,\uc74c\uc2dd,\uc870\uc0ac,\uacb0\uacfc\ubb3c,\uad6d\ubbfc,\uacf5\uc720,\ucc45,\ubc1c\uac04,\ucc45,\ubd81\ud55c,\uc804\ud1b5,\uc804\ud1b5\uc74c\uc2dd,\uc74c\uc2dd,\ub9db\uacfc,\uc6b0\uc218\uc131,\ub0a8\ubd81,\uacf5\ud1b5,\ubb38\ud654,\uacf5\uac10\ub300,\ud615\uc131,\uc218,\uc18c\uac1c,\uc77c\uc0c1,\ud55c,\ud55c\uc2dd\ub2f9,\uc2dd\ub2f9,\uc77c\ud488,\uc77c\ud488\uba54\ub274,\uba54\ub274,\ud65c\uc6a9,\uc138\uacc4\uc778,\uc785\ub9db,\ud55c\uc2dd,\ud55c\uc2dd\uc138\uacc4\ud654,\uc138\uacc4\ud654,\uc77c\uc870,\uae30\ub300,
p81
aV\ubd84\ub2e8,\uc544\ud514,\ud2b9\ubcc4,\uacf3,\ub808\uc774\uc2a4,\ud3c9\ud654,\ud3c9\ud654\ud1b5\uc77c,\ud1b5\uc77c,\ub370,\ubcf4\ud0ec,\ub9c8\uc74c,
p82
aV\ud55c\ubc18\ub3c4,60,60\uc5ec\ub144,\uc5ec,\ub144,\ub3d9\uc548,\ubd84\ub2e8,\uc544\ud514,5000,5000\ub144,\uc7a5\uad6c,\uc5ed\uc0ac,\ud55c\uad6d\uc778,\ube44\uadf9,\uc218,
p83
aV63,63\ub144,\ub144,\uc804,\ud55c\uad6d\uc804,\ud22c\uc785,21,21\uac1c\uad6d,\uac1c\uad6d,\ucc38\uc804,\ucc38\uc804\uc6a9\uc0ac,\uc6a9\uc0ac,\ud6c4\uc190,\uc545\uae30,\ubd84\ub2e8,\uc0c1\uc9d5,\uc778\uadfc,\uc0b0\uc5ed,\ud3c9\ud654,\ub178\ub798,\uc0ac\uc2e4,\uc758\ubbf8,
p84
aV\ud55c\ubc18\ub3c4,\ud3c9\ud654,\uad00\ub828,\ub300\ud654,\ud55c\uad6d\uc778,\uc911\uc694,\ubb38\uc81c,\uac00\uc6b4\ub370,\ud558\ub098,\ub300\ud654,\ucc38\uac00\uc790,\uc784\uc9c4\uac01,\ubc29\ubb38,\ubd84\ub2e8,\ud604\uc2e4,\uccb4\ud5d8,\ub4a4,\ud1a0\ub860,\ub54c\ubb38,\ud604,\ud604\uc2e4\uc801,\uc2e4\uc801,\ub17c\uc758,\uc9c4\ud589,\uc608\uc815,
p85
aV\ucea0\ud504,\ub9ac\ube0c,\ud55c\ubc18\ub3c4,\ubd84\ub2e8,\ubbf8\uad70,\uc8fc\ub454,\uc5ed\uc0ac,\ub300\ud45c\uc801,\ubb38\ud654\uc720\uc0b0,\uc774\ubc88,\ubd81\ud55c,\ud1a0\ud06c,\ud1a0\ud06c\ucf58\uc11c\ud2b8,\ucf58\uc11c\ud2b8,\ud55c\ubc18\ub3c4,\uc548\uc815,\ud3c9\ud654,\ud1b5\uc77c,\uad00\uc2ec,\uc758\uc9c0,\ud655\uc0b0,\uacc4\uae30,\ub9c8\uc74c,
p86
aV\uc815\uc804,60,60\uc8fc\ub144,\uc8fc\ub144,\ubd84\ub2e8,\uc2dc\ub300,\uc774\uc0c1,\ub17c\ub780,\uc0ac\uc218,\uc218\ud638,\uc758\uc9c0,\ud45c\uba85,\uc81c\uc548,\uc601\uad6c,\uc885\uc2dd,\uc120\uc5b8,
p87
aNaV\ud55c\ubc18\ub3c4,\uc778\uc704\uc801,\uad6d\uacbd,\uc608,\ub9cc\ud654\uacbd,\uc6b0\ub9ac,\uace0\uc720,\uc815\uc2e0,\ubd84\ub2e8,\ud55c\ubc18\ub3c4,\ud1b5\uc77c,\uafc8,
p88
aV\ubd84\ub2e8,\uc544\ud514,\ub4f1,\uc5ed\uc0ac\uc801,\uc758\ubbf8,\uc7a5\uc18c,\ub9cc\ud07c,\uc790\uc5f0,\uc790\uc5f0\uc790\uc6d0,\uc790\uc6d0,\ud6c4\uc138,\ud3c9\ud654,\uba54\uc2dc\uc9c0,\uc218,\uacf5\uac04,
p89
aV\ub0a8,\ubd81,\ubd84\ub2e8,\ud604\uc2e4,\uace0\ub824,\ub54c,\uccb4\uc81c,\uccb4\uc81c\uc804\ubcf5,\uc804\ubcf5,\ub3c4\ubaa8,\uc218\uc900,\uae00,\uc601\uc0c1,\uccad\uc18c\ub144,\ub4f1,\uc0ac\ud68c,\uad6c\uc131\uc6d0,\uc601\ud5a5,\uc218,\ubd81\ud55c,\uc6d0\uc0c9,\ucc2c\uc591,\uae00,\ubb34\ubc29\ube44,\uc778\ud130\ub137,\uac8c\uc7ac,\uac74,\uc81c\ud55c,\ud544\uc694,
p90
aV\ud30c\uc8fc,\uc218\ub3c4\uad8c,\ub0a8\ubd81,\ucd5c\uc0c1,\uad50\ud1b5\ub9dd,\ub0a8\ubd81,\ubd84\ub2e8,\uc0c1\uc9d5,\ud310\ubb38\uc810,\uc784\uc9c4\uac01,\ub4f1,\ud30c,\ud30c\uc8fc\uac00,\uc8fc\uac00,\ucd5c\uc801\uc9c0,
p91
aV\ubd84\ub2e8,\ub300\uacb0,\ubbfc\uc0dd,\ubcf5\uc9c0,\uc6d0\ucc9c\uc801,
p92
aV\ubd81\ud55c,\ud575,\uac1c\ubc1c,\ubb34\ub9ac,\uc8fc\uc7a5,\ud3c9\ud654,\ubd81,\uc790\uadf9,\ub9d0\uc790,\uace0,\ud1b5\uc77c\ub860,\ubd84\ub2e8,\ubd84\ub2e8\ud3c9\ud654,\ud3c9\ud654,\uc720\uc9c0,\ucd5c\uc120,\ubc29\ubc95,\uad6d\ubc29\ub825,\uc548\ubcf4,\uc548\ubcf4\uc758\uc2dd,\uc758\uc2dd,
p93
aV\ud55c\uad6d,30,30\uc870\uc6d0,\uc870,\uc6d0,\uc138\uacc4,12,12\uc704,\uc704,\uac70\ub300,\uad6d\ubc29\ube44,\uc0ac\uc6a9,\uad70\ub300,\ubc15\uadfc\ud61c\uc815\ubd80,\uc218,\ubd84\ub2e8,\ubd84\ub2e8\uc720\uc9c0,\uc720\uc9c0,
p94
ag94
aNaV\ub17c\uc7c1,\ubd80\ubd84,\ubb38\uc81c,\uc9c1\uba74,\ud604\ub300,\uc0ac\ud68c,\uc0dd\uac01,
p95
aV\ub0c9\uc804,\uc720\uc0b0,\uc720\uc0b0\uc774\uc790,\uc774\uc790,\ubd84\ub2e8,\uc0c1\ucc98,\ube68\uac31\uc774,\uacfc\uac70,\ub9d0,\uc720\ub839,\ucd9c\ubab0,\ud604\uc7ac,\ubbf8\ub798,\ud761\uc218,\ub54c,\uc6b0\ub9ac,\uc18d,\ud574\ubc29,\uc804\ub9dd,\uc218,
p96
a.